; Function Attrs: mustprogress nounwind uwtable
define hidden void @_ZN6Assimp7ZipFileD0Ev(ptr noundef nonnull align 8 dereferenceable(64) %this) unnamed_addr #1 align 2 {
entry:
  store ptr getelementptr inbounds ({ [10 x ptr] }, ptr @_ZTVN6Assimp7ZipFileE, i64 0, i32 0, i64 2), ptr %this, align 8
  %m_Buffer.i = getelementptr inbounds i8, ptr %this, i64 56
  %0 = load ptr, ptr %m_Buffer.i, align 8
  %cmp.not.i.i = icmp eq ptr %0, null
  br i1 %cmp.not.i.i, label %_ZN6Assimp7ZipFileD2Ev.exit, label %_ZNKSt14default_deleteIA_hEclIhEENSt9enable_ifIXsr14is_convertibleIPA_T_PS0_EE5valueEvE4typeEPS4_.exit.i.i

_ZNKSt14default_deleteIA_hEclIhEENSt9enable_ifIXsr14is_convertibleIPA_T_PS0_EE5valueEvE4typeEPS4_.exit.i.i: ; preds = %entry
  tail call void @_ZdaPv(ptr noundef nonnull %0) #31
  br label %_ZN6Assimp7ZipFileD2Ev.exit

_ZN6Assimp7ZipFileD2Ev.exit:                      ; preds = %entry, %_ZNKSt14default_deleteIA_hEclIhEENSt9enable_ifIXsr14is_convertibleIPA_T_PS0_EE5valueEvE4typeEPS4_.exit.i.i
  store ptr null, ptr %m_Buffer.i, align 8
  %m_Filename.i = getelementptr inbounds i8, ptr %this, i64 8
  tail call void @_ZNSt7__cxx1112basic_stringIcSt11char_traitsIcESaIcEED1Ev(ptr noundef nonnull align 8 dereferenceable(32) %m_Filename.i) #28
  tail call void @_ZN6Assimp6Intern22AllocateFromAssimpHeapdlEPv(ptr noundef nonnull %this) #28
  ret void
}